; Function Attrs: mustprogress uwtable
define noundef i32 @_ZNK6casadi7UnaryMX4evalEPPKdPPdPxS4_(ptr noundef nonnull align 8 dereferenceable(68) %0, ptr noundef readonly captures(none) %1, ptr noundef readonly captures(none) %2, ptr readnone captures(none) %3, ptr readnone captures(none) %4) unnamed_addr #3 align 2 {
  %6 = alloca double, align 8
  call void @llvm.lifetime.start.p0(i64 8, ptr nonnull %6) #21
  store double 0x7FF8000000000000, ptr %6, align 8, !tbaa !49
  %7 = getelementptr inbounds nuw i8, ptr %0, i64 64
  %8 = load i32, ptr %7, align 8, !tbaa !6
  %9 = trunc i32 %8 to i8
  %10 = load ptr, ptr %1, align 8, !tbaa !51
  %11 = load ptr, ptr %2, align 8, !tbaa !51
  %12 = load ptr, ptr %0, align 8, !tbaa !3
  %13 = getelementptr inbounds nuw i8, ptr %12, i64 392
  %14 = load ptr, ptr %13, align 8
  %15 = tail call noundef nonnull align 8 dereferenceable(8) ptr %14(ptr noundef nonnull align 8 dereferenceable(64) %0, i64 noundef 0)
  %16 = tail call noundef i64 @_ZNK6casadi8Sparsity3nnzEv(ptr noundef nonnull align 8 dereferenceable(8) %15)
  call void @_ZN6casadi11casadi_mathIdE3funEhPKdRS2_Pdx(i8 noundef zeroext %9, ptr noundef %10, ptr noundef nonnull align 8 dereferenceable(8) %6, ptr noundef %11, i64 noundef %16)
  call void @llvm.lifetime.end.p0(i64 8, ptr nonnull %6) #21
  ret i32 0
}